target datalayout = "e-m:e-p270:32:32-p271:32:32-p272:64:64-i64:64-i128:128-f80:128-n8:16:32:64-S128"
target triple = "x86_64-pc-linux-gnu"

%"class.LIEF::MachO::DyldChainedFixups" = type { %"class.LIEF::MachO::LoadCommand", i32, i32, %"class.tcb::span", i32, i32, i32, i32, i32, i32, i32, %"class.std::vector.0", %"class.std::vector.5", %"class.std::vector.10" }
%"class.LIEF::MachO::LoadCommand" = type { %"class.LIEF::Object", %"class.std::vector", i64, i32, i64 }
%"class.LIEF::Object" = type { ptr }
%"class.std::vector" = type { %"struct.std::_Vector_base" }
%"struct.std::_Vector_base" = type { %"struct.std::_Vector_base<unsigned char, std::allocator<unsigned char>>::_Vector_impl" }
%"struct.std::_Vector_base<unsigned char, std::allocator<unsigned char>>::_Vector_impl" = type { %"struct.std::_Vector_base<unsigned char, std::allocator<unsigned char>>::_Vector_impl_data" }
%"struct.std::_Vector_base<unsigned char, std::allocator<unsigned char>>::_Vector_impl_data" = type { ptr, ptr, ptr }
%"class.tcb::span" = type { %"struct.tcb::detail::span_storage" }
%"struct.tcb::detail::span_storage" = type { ptr, i64 }
%"class.std::vector.0" = type { %"struct.std::_Vector_base.1" }
%"struct.std::_Vector_base.1" = type { %"struct.std::_Vector_base<LIEF::MachO::DyldChainedFixups::chained_starts_in_segment, std::allocator<LIEF::MachO::DyldChainedFixups::chained_starts_in_segment>>::_Vector_impl" }
%"struct.std::_Vector_base<LIEF::MachO::DyldChainedFixups::chained_starts_in_segment, std::allocator<LIEF::MachO::DyldChainedFixups::chained_starts_in_segment>>::_Vector_impl" = type { %"struct.std::_Vector_base<LIEF::MachO::DyldChainedFixups::chained_starts_in_segment, std::allocator<LIEF::MachO::DyldChainedFixups::chained_starts_in_segment>>::_Vector_impl_data" }
%"struct.std::_Vector_base<LIEF::MachO::DyldChainedFixups::chained_starts_in_segment, std::allocator<LIEF::MachO::DyldChainedFixups::chained_starts_in_segment>>::_Vector_impl_data" = type { ptr, ptr, ptr }
%"class.std::vector.5" = type { %"struct.std::_Vector_base.6" }
%"struct.std::_Vector_base.6" = type { %"struct.std::_Vector_base<std::unique_ptr<LIEF::MachO::ChainedBindingInfoList>, std::allocator<std::unique_ptr<LIEF::MachO::ChainedBindingInfoList>>>::_Vector_impl" }
%"struct.std::_Vector_base<std::unique_ptr<LIEF::MachO::ChainedBindingInfoList>, std::allocator<std::unique_ptr<LIEF::MachO::ChainedBindingInfoList>>>::_Vector_impl" = type { %"struct.std::_Vector_base<std::unique_ptr<LIEF::MachO::ChainedBindingInfoList>, std::allocator<std::unique_ptr<LIEF::MachO::ChainedBindingInfoList>>>::_Vector_impl_data" }
%"struct.std::_Vector_base<std::unique_ptr<LIEF::MachO::ChainedBindingInfoList>, std::allocator<std::unique_ptr<LIEF::MachO::ChainedBindingInfoList>>>::_Vector_impl_data" = type { ptr, ptr, ptr }
%"class.std::vector.10" = type { %"struct.std::_Vector_base.11" }
%"struct.std::_Vector_base.11" = type { %"struct.std::_Vector_base<std::unique_ptr<LIEF::MachO::ChainedBindingInfo>, std::allocator<std::unique_ptr<LIEF::MachO::ChainedBindingInfo>>>::_Vector_impl" }
%"struct.std::_Vector_base<std::unique_ptr<LIEF::MachO::ChainedBindingInfo>, std::allocator<std::unique_ptr<LIEF::MachO::ChainedBindingInfo>>>::_Vector_impl" = type { %"struct.std::_Vector_base<std::unique_ptr<LIEF::MachO::ChainedBindingInfo>, std::allocator<std::unique_ptr<LIEF::MachO::ChainedBindingInfo>>>::_Vector_impl_data" }
%"struct.std::_Vector_base<std::unique_ptr<LIEF::MachO::ChainedBindingInfo>, std::allocator<std::unique_ptr<LIEF::MachO::ChainedBindingInfo>>>::_Vector_impl_data" = type { ptr, ptr, ptr }

; Function Attrs: mustprogress nounwind uwtable
define noundef nonnull align 8 dereferenceable(184) ptr @_ZN4LIEF5MachO17DyldChainedFixupsaSERKS1_(ptr noundef nonnull align 8 dereferenceable(184) %0, ptr noundef nonnull align 8 dereferenceable(184) %1) #1 align 2 {
  %3 = alloca ptr, align 8
  %4 = alloca ptr, align 8
  store ptr %0, ptr %3, align 8
  store ptr %1, ptr %4, align 8
  %5 = load ptr, ptr %3, align 8
  %6 = load ptr, ptr %4, align 8
  %7 = icmp ne ptr %6, %5
  br i1 %7, label %8, label %17

8:                                                ; preds = %2
  %9 = load ptr, ptr %4, align 8
  %10 = getelementptr inbounds %"class.LIEF::MachO::DyldChainedFixups", ptr %9, i32 0, i32 1
  %11 = load i32, ptr %10, align 8
  %12 = getelementptr inbounds %"class.LIEF::MachO::DyldChainedFixups", ptr %5, i32 0, i32 1
  store i32 %11, ptr %12, align 8
  %13 = load ptr, ptr %4, align 8
  %14 = getelementptr inbounds %"class.LIEF::MachO::DyldChainedFixups", ptr %13, i32 0, i32 1
  %15 = load i32, ptr %14, align 8
  %16 = getelementptr inbounds %"class.LIEF::MachO::DyldChainedFixups", ptr %5, i32 0, i32 1
  store i32 %15, ptr %16, align 8
  br label %17

17:                                               ; preds = %8, %2
  ret ptr %5
}