; Function Attrs: mustprogress nofree norecurse nosync nounwind willreturn memory(argmem: readwrite) uwtable
define noundef nonnull align 8 dereferenceable(184) ptr @_ZN4LIEF5MachO17DyldChainedFixupsaSERKS1_(ptr noundef nonnull returned writeonly align 8 dereferenceable(184) %0, ptr noundef nonnull readonly align 8 dereferenceable(184) %1) local_unnamed_addr #5 align 2 {
  %.not = icmp eq ptr %1, %0
  br i1 %.not, label %7, label %3

3:                                                ; preds = %2
  %4 = getelementptr inbounds i8, ptr %1, i64 56
  %5 = load i32, ptr %4, align 8
  %6 = getelementptr inbounds i8, ptr %0, i64 56
  store i32 %5, ptr %6, align 8
  br label %7

7:                                                ; preds = %3, %2
  ret ptr %0
}